target datalayout = "e-m:e-p270:32:32-p271:32:32-p272:64:64-i64:64-i128:128-f80:128-n8:16:32:64-S128"
target triple = "x86_64-pc-linux-gnu"

; Function Attrs: mustprogress nounwind uwtable
define linkonce_odr noundef float @_Zli5_reale(x86_fp80 noundef %0) #4 comdat {
  %2 = alloca x86_fp80, align 16
  store x86_fp80 %0, ptr %2, align 16, !tbaa !19
  %3 = load x86_fp80, ptr %2, align 16, !tbaa !19
  %4 = fptrunc x86_fp80 %3 to float
  ret float %4
}

; Function Attrs: inlinehint mustprogress nounwind uwtable
define internal void @_ZL5svmulfPKfPf(float noundef %0, ptr noundef %1, ptr noundef %2) #3 {
  %4 = alloca float, align 4
  %5 = alloca ptr, align 8
  %6 = alloca ptr, align 8
  store float %0, ptr %4, align 4, !tbaa !17
  store ptr %1, ptr %5, align 8, !tbaa !9
  store ptr %2, ptr %6, align 8, !tbaa !9
  %7 = load float, ptr %4, align 4, !tbaa !17
  %8 = load ptr, ptr %5, align 8, !tbaa !9
  %9 = getelementptr inbounds float, ptr %8, i64 0
  %10 = load float, ptr %9, align 4, !tbaa !17
  %11 = fmul float %7, %10
  %12 = load ptr, ptr %6, align 8, !tbaa !9
  %13 = getelementptr inbounds float, ptr %12, i64 0
  store float %11, ptr %13, align 4, !tbaa !17
  %14 = load float, ptr %4, align 4, !tbaa !17
  %15 = load ptr, ptr %5, align 8, !tbaa !9
  %16 = getelementptr inbounds float, ptr %15, i64 1
  %17 = load float, ptr %16, align 4, !tbaa !17
  %18 = fmul float %14, %17
  %19 = load ptr, ptr %6, align 8, !tbaa !9
  %20 = getelementptr inbounds float, ptr %19, i64 1
  store float %18, ptr %20, align 4, !tbaa !17
  %21 = load float, ptr %4, align 4, !tbaa !17
  %22 = load ptr, ptr %5, align 8, !tbaa !9
  %23 = getelementptr inbounds float, ptr %22, i64 2
  %24 = load float, ptr %23, align 4, !tbaa !17
  %25 = fmul float %21, %24
  %26 = load ptr, ptr %6, align 8, !tbaa !9
  %27 = getelementptr inbounds float, ptr %26, i64 2
  store float %25, ptr %27, align 4, !tbaa !17
  ret void
}

; Function Attrs: inlinehint mustprogress nounwind uwtable
define internal void @_ZL8rvec_incPfPKf(ptr noundef %0, ptr noundef %1) #3 {
  %3 = alloca ptr, align 8
  %4 = alloca ptr, align 8
  %5 = alloca float, align 4
  %6 = alloca float, align 4
  %7 = alloca float, align 4
  store ptr %0, ptr %3, align 8, !tbaa !9
  store ptr %1, ptr %4, align 8, !tbaa !9
  call void @llvm.lifetime.start.p0(i64 4, ptr %5) #8
  call void @llvm.lifetime.start.p0(i64 4, ptr %6) #8
  call void @llvm.lifetime.start.p0(i64 4, ptr %7) #8
  %8 = load ptr, ptr %3, align 8, !tbaa !9
  %9 = getelementptr inbounds float, ptr %8, i64 0
  %10 = load float, ptr %9, align 4, !tbaa !17
  %11 = load ptr, ptr %4, align 8, !tbaa !9
  %12 = getelementptr inbounds float, ptr %11, i64 0
  %13 = load float, ptr %12, align 4, !tbaa !17
  %14 = fadd float %10, %13
  store float %14, ptr %5, align 4, !tbaa !17
  %15 = load ptr, ptr %3, align 8, !tbaa !9
  %16 = getelementptr inbounds float, ptr %15, i64 1
  %17 = load float, ptr %16, align 4, !tbaa !17
  %18 = load ptr, ptr %4, align 8, !tbaa !9
  %19 = getelementptr inbounds float, ptr %18, i64 1
  %20 = load float, ptr %19, align 4, !tbaa !17
  %21 = fadd float %17, %20
  store float %21, ptr %6, align 4, !tbaa !17
  %22 = load ptr, ptr %3, align 8, !tbaa !9
  %23 = getelementptr inbounds float, ptr %22, i64 2
  %24 = load float, ptr %23, align 4, !tbaa !17
  %25 = load ptr, ptr %4, align 8, !tbaa !9
  %26 = getelementptr inbounds float, ptr %25, i64 2
  %27 = load float, ptr %26, align 4, !tbaa !17
  %28 = fadd float %24, %27
  store float %28, ptr %7, align 4, !tbaa !17
  %29 = load float, ptr %5, align 4, !tbaa !17
  %30 = load ptr, ptr %3, align 8, !tbaa !9
  %31 = getelementptr inbounds float, ptr %30, i64 0
  store float %29, ptr %31, align 4, !tbaa !17
  %32 = load float, ptr %6, align 4, !tbaa !17
  %33 = load ptr, ptr %3, align 8, !tbaa !9
  %34 = getelementptr inbounds float, ptr %33, i64 1
  store float %32, ptr %34, align 4, !tbaa !17
  %35 = load float, ptr %7, align 4, !tbaa !17
  %36 = load ptr, ptr %3, align 8, !tbaa !9
  %37 = getelementptr inbounds float, ptr %36, i64 2
  store float %35, ptr %37, align 4, !tbaa !17
  call void @llvm.lifetime.end.p0(i64 4, ptr %7) #8
  call void @llvm.lifetime.end.p0(i64 4, ptr %6) #8
  call void @llvm.lifetime.end.p0(i64 4, ptr %5) #8
  ret void
}

; Function Attrs: inlinehint mustprogress uwtable
define internal void @_ZL10clear_rvecPf(ptr noundef %0) #2 {
  %2 = alloca ptr, align 8
  store ptr %0, ptr %2, align 8, !tbaa !9
  %3 = call noundef float @_Zli5_reale(x86_fp80 noundef 0xK00000000000000000000)
  %4 = load ptr, ptr %2, align 8, !tbaa !9
  %5 = getelementptr inbounds float, ptr %4, i64 0
  store float %3, ptr %5, align 4, !tbaa !17
  %6 = call noundef float @_Zli5_reale(x86_fp80 noundef 0xK00000000000000000000)
  %7 = load ptr, ptr %2, align 8, !tbaa !9
  %8 = getelementptr inbounds float, ptr %7, i64 1
  store float %6, ptr %8, align 4, !tbaa !17
  %9 = call noundef float @_Zli5_reale(x86_fp80 noundef 0xK00000000000000000000)
  %10 = load ptr, ptr %2, align 8, !tbaa !9
  %11 = getelementptr inbounds float, ptr %10, i64 2
  store float %9, ptr %11, align 4, !tbaa !17
  ret void
}

; Function Attrs: inlinehint mustprogress nounwind uwtable
define linkonce_odr noundef float @_ZSt4fabsf(float noundef %0) #3 comdat {
  %2 = alloca float, align 4
  store float %0, ptr %2, align 4, !tbaa !17
  %3 = load float, ptr %2, align 4, !tbaa !17
  %4 = call float @llvm.fabs.f32(float %3)
  ret float %4
}

; Function Attrs: inlinehint mustprogress nounwind uwtable
define internal void @_ZL8rvec_addPKfS0_Pf(ptr noundef %0, ptr noundef %1, ptr noundef %2) #3 {
  %4 = alloca ptr, align 8
  %5 = alloca ptr, align 8
  %6 = alloca ptr, align 8
  %7 = alloca float, align 4
  %8 = alloca float, align 4
  %9 = alloca float, align 4
  store ptr %0, ptr %4, align 8, !tbaa !9
  store ptr %1, ptr %5, align 8, !tbaa !9
  store ptr %2, ptr %6, align 8, !tbaa !9
  call void @llvm.lifetime.start.p0(i64 4, ptr %7) #8
  call void @llvm.lifetime.start.p0(i64 4, ptr %8) #8
  call void @llvm.lifetime.start.p0(i64 4, ptr %9) #8
  %10 = load ptr, ptr %4, align 8, !tbaa !9
  %11 = getelementptr inbounds float, ptr %10, i64 0
  %12 = load float, ptr %11, align 4, !tbaa !17
  %13 = load ptr, ptr %5, align 8, !tbaa !9
  %14 = getelementptr inbounds float, ptr %13, i64 0
  %15 = load float, ptr %14, align 4, !tbaa !17
  %16 = fadd float %12, %15
  store float %16, ptr %7, align 4, !tbaa !17
  %17 = load ptr, ptr %4, align 8, !tbaa !9
  %18 = getelementptr inbounds float, ptr %17, i64 1
  %19 = load float, ptr %18, align 4, !tbaa !17
  %20 = load ptr, ptr %5, align 8, !tbaa !9
  %21 = getelementptr inbounds float, ptr %20, i64 1
  %22 = load float, ptr %21, align 4, !tbaa !17
  %23 = fadd float %19, %22
  store float %23, ptr %8, align 4, !tbaa !17
  %24 = load ptr, ptr %4, align 8, !tbaa !9
  %25 = getelementptr inbounds float, ptr %24, i64 2
  %26 = load float, ptr %25, align 4, !tbaa !17
  %27 = load ptr, ptr %5, align 8, !tbaa !9
  %28 = getelementptr inbounds float, ptr %27, i64 2
  %29 = load float, ptr %28, align 4, !tbaa !17
  %30 = fadd float %26, %29
  store float %30, ptr %9, align 4, !tbaa !17
  %31 = load float, ptr %7, align 4, !tbaa !17
  %32 = load ptr, ptr %6, align 8, !tbaa !9
  %33 = getelementptr inbounds float, ptr %32, i64 0
  store float %31, ptr %33, align 4, !tbaa !17
  %34 = load float, ptr %8, align 4, !tbaa !17
  %35 = load ptr, ptr %6, align 8, !tbaa !9
  %36 = getelementptr inbounds float, ptr %35, i64 1
  store float %34, ptr %36, align 4, !tbaa !17
  %37 = load float, ptr %9, align 4, !tbaa !17
  %38 = load ptr, ptr %6, align 8, !tbaa !9
  %39 = getelementptr inbounds float, ptr %38, i64 2
  store float %37, ptr %39, align 4, !tbaa !17
  call void @llvm.lifetime.end.p0(i64 4, ptr %9) #8
  call void @llvm.lifetime.end.p0(i64 4, ptr %8) #8
  call void @llvm.lifetime.end.p0(i64 4, ptr %7) #8
  ret void
}

; Function Attrs: mustprogress uwtable
define void @_Z12gmx_calc_cogPK10gmx_mtop_tPA3_fiPKiPf(ptr noundef %0, ptr noundef %1, i32 noundef %2, ptr noundef %3, ptr noundef %4) #0 {
  %6 = alloca ptr, align 8
  %7 = alloca ptr, align 8
  %8 = alloca i32, align 4
  %9 = alloca ptr, align 8
  %10 = alloca ptr, align 8
  %11 = alloca i32, align 4
  %12 = alloca i32, align 4
  store ptr %0, ptr %6, align 8, !tbaa !4
  store ptr %1, ptr %7, align 8, !tbaa !9
  store i32 %2, ptr %8, align 4, !tbaa !11
  store ptr %3, ptr %9, align 8, !tbaa !13
  store ptr %4, ptr %10, align 8, !tbaa !9
  call void @llvm.lifetime.start.p0(i64 4, ptr %11) #8
  call void @llvm.lifetime.start.p0(i64 4, ptr %12) #8
  %13 = load ptr, ptr %10, align 8, !tbaa !9
  call void @_ZL10clear_rvecPf(ptr noundef %13)
  store i32 0, ptr %11, align 4, !tbaa !11
  br label %14

14:                                               ; preds = %30, %5
  %15 = load i32, ptr %11, align 4, !tbaa !11
  %16 = load i32, ptr %8, align 4, !tbaa !11
  %17 = icmp slt i32 %15, %16
  br i1 %17, label %18, label %33

18:                                               ; preds = %14
  %19 = load ptr, ptr %9, align 8, !tbaa !13
  %20 = load i32, ptr %11, align 4, !tbaa !11
  %21 = sext i32 %20 to i64
  %22 = getelementptr inbounds i32, ptr %19, i64 %21
  %23 = load i32, ptr %22, align 4, !tbaa !11
  store i32 %23, ptr %12, align 4, !tbaa !11
  %24 = load ptr, ptr %10, align 8, !tbaa !9
  %25 = load ptr, ptr %7, align 8, !tbaa !9
  %26 = load i32, ptr %12, align 4, !tbaa !11
  %27 = sext i32 %26 to i64
  %28 = getelementptr inbounds [3 x float], ptr %25, i64 %27
  %29 = getelementptr inbounds [3 x float], ptr %28, i64 0, i64 0
  call void @_ZL8rvec_incPfPKf(ptr noundef %24, ptr noundef %29)
  br label %30

30:                                               ; preds = %18
  %31 = load i32, ptr %11, align 4, !tbaa !11
  %32 = add nsw i32 %31, 1
  store i32 %32, ptr %11, align 4, !tbaa !11
  br label %14, !llvm.loop !15

33:                                               ; preds = %14
  %34 = load i32, ptr %8, align 4, !tbaa !11
  %35 = sitofp i32 %34 to double
  %36 = fdiv double 1.000000e+00, %35
  %37 = fptrunc double %36 to float
  %38 = load ptr, ptr %10, align 8, !tbaa !9
  %39 = load ptr, ptr %10, align 8, !tbaa !9
  call void @_ZL5svmulfPKfPf(float noundef %37, ptr noundef %38, ptr noundef %39)
  call void @llvm.lifetime.end.p0(i64 4, ptr %12) #8
  call void @llvm.lifetime.end.p0(i64 4, ptr %11) #8
  ret void
}

; Function Attrs: mustprogress uwtable
define void @_Z16gmx_calc_cog_pbcPK10gmx_mtop_tPA3_fPK5t_pbciPKiPf(ptr noundef %0, ptr noundef %1, ptr noundef %2, i32 noundef %3, ptr noundef %4, ptr noundef %5) #0 {
  %7 = alloca ptr, align 8
  %8 = alloca ptr, align 8
  %9 = alloca ptr, align 8
  %10 = alloca i32, align 4
  %11 = alloca ptr, align 8
  %12 = alloca ptr, align 8
  %13 = alloca float, align 4
  %14 = alloca i8, align 1
  %15 = alloca i32, align 4
  %16 = alloca i32, align 4
  %17 = alloca i32, align 4
  %18 = alloca [3 x float], align 4
  %19 = alloca [3 x float], align 4
  store ptr %0, ptr %7, align 8, !tbaa !4
  store ptr %1, ptr %8, align 8, !tbaa !9
  store ptr %2, ptr %9, align 8, !tbaa !83
  store i32 %3, ptr %10, align 4, !tbaa !11
  store ptr %4, ptr %11, align 8, !tbaa !13
  store ptr %5, ptr %12, align 8, !tbaa !9
  call void @llvm.lifetime.start.p0(i64 4, ptr %13) #8
  store float 0x3F1A36E2E0000000, ptr %13, align 4, !tbaa !17
  call void @llvm.lifetime.start.p0(i64 1, ptr %14) #8
  call void @llvm.lifetime.start.p0(i64 4, ptr %15) #8
  call void @llvm.lifetime.start.p0(i64 4, ptr %16) #8
  call void @llvm.lifetime.start.p0(i64 4, ptr %17) #8
  call void @llvm.lifetime.start.p0(i64 12, ptr %18) #8
  call void @llvm.lifetime.start.p0(i64 12, ptr %19) #8
  %20 = load ptr, ptr %7, align 8, !tbaa !4
  %21 = load ptr, ptr %8, align 8, !tbaa !9
  %22 = load i32, ptr %10, align 4, !tbaa !11
  %23 = load ptr, ptr %11, align 8, !tbaa !13
  %24 = load ptr, ptr %12, align 8, !tbaa !9
  call void @_Z12gmx_calc_cogPK10gmx_mtop_tPA3_fiPKiPf(ptr noundef %20, ptr noundef %21, i32 noundef %22, ptr noundef %23, ptr noundef %24)
  %25 = load ptr, ptr %9, align 8, !tbaa !83
  %26 = icmp ne ptr %25, null
  br i1 %26, label %27, label %116

27:                                               ; preds = %6
  br label %28

28:                                               ; preds = %112, %27
  store i8 0, ptr %14, align 1, !tbaa !80
  store i32 0, ptr %15, align 4, !tbaa !11
  br label %29

29:                                               ; preds = %108, %28
  %30 = load i32, ptr %15, align 4, !tbaa !11
  %31 = load i32, ptr %10, align 4, !tbaa !11
  %32 = icmp slt i32 %30, %31
  br i1 %32, label %33, label %111

33:                                               ; preds = %29
  %34 = load ptr, ptr %11, align 8, !tbaa !13
  %35 = load i32, ptr %15, align 4, !tbaa !11
  %36 = sext i32 %35 to i64
  %37 = getelementptr inbounds i32, ptr %34, i64 %36
  %38 = load i32, ptr %37, align 4, !tbaa !11
  store i32 %38, ptr %17, align 4, !tbaa !11
  %39 = load ptr, ptr %9, align 8, !tbaa !83
  %40 = load ptr, ptr %8, align 8, !tbaa !9
  %41 = load i32, ptr %17, align 4, !tbaa !11
  %42 = sext i32 %41 to i64
  %43 = getelementptr inbounds [3 x float], ptr %40, i64 %42
  %44 = getelementptr inbounds [3 x float], ptr %43, i64 0, i64 0
  %45 = load ptr, ptr %12, align 8, !tbaa !9
  %46 = getelementptr inbounds [3 x float], ptr %18, i64 0, i64 0
  call void @_Z6pbc_dxPK5t_pbcPKfS3_Pf(ptr noundef %39, ptr noundef %44, ptr noundef %45, ptr noundef %46)
  %47 = load ptr, ptr %12, align 8, !tbaa !9
  %48 = getelementptr inbounds [3 x float], ptr %18, i64 0, i64 0
  %49 = getelementptr inbounds [3 x float], ptr %19, i64 0, i64 0
  call void @_ZL8rvec_addPKfS0_Pf(ptr noundef %47, ptr noundef %48, ptr noundef %49)
  store i32 0, ptr %16, align 4, !tbaa !11
  br label %50

50:                                               ; preds = %104, %33
  %51 = load i32, ptr %16, align 4, !tbaa !11
  %52 = icmp slt i32 %51, 3
  br i1 %52, label %53, label %107

53:                                               ; preds = %50
  %54 = load i32, ptr %16, align 4, !tbaa !11
  %55 = sext i32 %54 to i64
  %56 = getelementptr inbounds [3 x float], ptr %19, i64 0, i64 %55
  %57 = load float, ptr %56, align 4, !tbaa !17
  %58 = load ptr, ptr %8, align 8, !tbaa !9
  %59 = load i32, ptr %17, align 4, !tbaa !11
  %60 = sext i32 %59 to i64
  %61 = getelementptr inbounds [3 x float], ptr %58, i64 %60
  %62 = load i32, ptr %16, align 4, !tbaa !11
  %63 = sext i32 %62 to i64
  %64 = getelementptr inbounds [3 x float], ptr %61, i64 0, i64 %63
  %65 = load float, ptr %64, align 4, !tbaa !17
  %66 = fsub float %57, %65
  %67 = call noundef float @_ZSt4fabsf(float noundef %66)
  %68 = fcmp ogt float %67, 0x3F1A36E2E0000000
  br i1 %68, label %69, label %103

69:                                               ; preds = %53
  %70 = load i32, ptr %16, align 4, !tbaa !11
  %71 = sext i32 %70 to i64
  %72 = getelementptr inbounds [3 x float], ptr %19, i64 0, i64 %71
  %73 = load float, ptr %72, align 4, !tbaa !17
  %74 = load ptr, ptr %8, align 8, !tbaa !9
  %75 = load i32, ptr %17, align 4, !tbaa !11
  %76 = sext i32 %75 to i64
  %77 = getelementptr inbounds [3 x float], ptr %74, i64 %76
  %78 = load i32, ptr %16, align 4, !tbaa !11
  %79 = sext i32 %78 to i64
  %80 = getelementptr inbounds [3 x float], ptr %77, i64 0, i64 %79
  %81 = load float, ptr %80, align 4, !tbaa !17
  %82 = fsub float %73, %81
  %83 = load i32, ptr %10, align 4, !tbaa !11
  %84 = sitofp i32 %83 to float
  %85 = fdiv float %82, %84
  %86 = load ptr, ptr %12, align 8, !tbaa !9
  %87 = load i32, ptr %16, align 4, !tbaa !11
  %88 = sext i32 %87 to i64
  %89 = getelementptr inbounds float, ptr %86, i64 %88
  %90 = load float, ptr %89, align 4, !tbaa !17
  %91 = fadd float %90, %85
  store float %91, ptr %89, align 4, !tbaa !17
  %92 = load i32, ptr %16, align 4, !tbaa !11
  %93 = sext i32 %92 to i64
  %94 = getelementptr inbounds [3 x float], ptr %19, i64 0, i64 %93
  %95 = load float, ptr %94, align 4, !tbaa !17
  %96 = load ptr, ptr %8, align 8, !tbaa !9
  %97 = load i32, ptr %17, align 4, !tbaa !11
  %98 = sext i32 %97 to i64
  %99 = getelementptr inbounds [3 x float], ptr %96, i64 %98
  %100 = load i32, ptr %16, align 4, !tbaa !11
  %101 = sext i32 %100 to i64
  %102 = getelementptr inbounds [3 x float], ptr %99, i64 0, i64 %101
  store float %95, ptr %102, align 4, !tbaa !17
  store i8 1, ptr %14, align 1, !tbaa !80
  br label %103

103:                                              ; preds = %69, %53
  br label %104

104:                                              ; preds = %103
  %105 = load i32, ptr %16, align 4, !tbaa !11
  %106 = add nsw i32 %105, 1
  store i32 %106, ptr %16, align 4, !tbaa !11
  br label %50, !llvm.loop !85

107:                                              ; preds = %50
  br label %108

108:                                              ; preds = %107
  %109 = load i32, ptr %15, align 4, !tbaa !11
  %110 = add nsw i32 %109, 1
  store i32 %110, ptr %15, align 4, !tbaa !11
  br label %29, !llvm.loop !86

111:                                              ; preds = %29
  br label %112

112:                                              ; preds = %111
  %113 = load i8, ptr %14, align 1, !tbaa !80, !range !81, !noundef !82
  %114 = trunc i8 %113 to i1
  br i1 %114, label %28, label %115, !llvm.loop !87

115:                                              ; preds = %112
  br label %116

116:                                              ; preds = %115, %6
  call void @llvm.lifetime.end.p0(i64 12, ptr %19) #8
  call void @llvm.lifetime.end.p0(i64 12, ptr %18) #8
  call void @llvm.lifetime.end.p0(i64 4, ptr %17) #8
  call void @llvm.lifetime.end.p0(i64 4, ptr %16) #8
  call void @llvm.lifetime.end.p0(i64 4, ptr %15) #8
  call void @llvm.lifetime.end.p0(i64 1, ptr %14) #8
  call void @llvm.lifetime.end.p0(i64 4, ptr %13) #8
  ret void
}