; Function Attrs: mustprogress uwtable
define void @_Z16gmx_calc_cog_pbcPK10gmx_mtop_tPA3_fPK5t_pbciPKiPf(ptr readnone captures(none) %0, ptr noundef %1, ptr noundef %2, i32 noundef %3, ptr noundef readonly captures(none) %4, ptr noundef initializes((0, 12)) %5) local_unnamed_addr #2 {
  %7 = alloca [3 x float], align 4
  %8 = alloca [3 x float], align 4
  call void @llvm.lifetime.start.p0(i64 12, ptr nonnull %7) #8
  call void @llvm.lifetime.start.p0(i64 12, ptr nonnull %8) #8
  store float 0.000000e+00, ptr %5, align 4, !tbaa !4
  %9 = getelementptr inbounds nuw i8, ptr %5, i64 4
  store float 0.000000e+00, ptr %9, align 4, !tbaa !4
  %10 = getelementptr inbounds nuw i8, ptr %5, i64 8
  store float 0.000000e+00, ptr %10, align 4, !tbaa !4
  %11 = icmp sgt i32 %3, 0
  br i1 %11, label %.lr.ph.i, label %_Z12gmx_calc_cogPK10gmx_mtop_tPA3_fiPKiPf.exit

.lr.ph.i:                                         ; preds = %6
  %wide.trip.count.i = zext nneg i32 %3 to i64
  br label %12

12:                                               ; preds = %12, %.lr.ph.i
  %indvars.iv.i = phi i64 [ 0, %.lr.ph.i ], [ %indvars.iv.next.i, %12 ]
  %13 = phi float [ 0.000000e+00, %.lr.ph.i ], [ %27, %12 ]
  %14 = phi float [ 0.000000e+00, %.lr.ph.i ], [ %24, %12 ]
  %15 = phi float [ 0.000000e+00, %.lr.ph.i ], [ %21, %12 ]
  %16 = getelementptr inbounds nuw i32, ptr %4, i64 %indvars.iv.i
  %17 = load i32, ptr %16, align 4, !tbaa !8
  %18 = sext i32 %17 to i64
  %19 = getelementptr inbounds [3 x float], ptr %1, i64 %18
  %20 = load float, ptr %19, align 4, !tbaa !4
  %21 = fadd float %15, %20
  %22 = getelementptr inbounds nuw i8, ptr %19, i64 4
  %23 = load float, ptr %22, align 4, !tbaa !4
  %24 = fadd float %14, %23
  %25 = getelementptr inbounds nuw i8, ptr %19, i64 8
  %26 = load float, ptr %25, align 4, !tbaa !4
  %27 = fadd float %13, %26
  store float %21, ptr %5, align 4, !tbaa !4
  store float %24, ptr %9, align 4, !tbaa !4
  store float %27, ptr %10, align 4, !tbaa !4
  %indvars.iv.next.i = add nuw nsw i64 %indvars.iv.i, 1
  %exitcond.not.i = icmp eq i64 %indvars.iv.next.i, %wide.trip.count.i
  br i1 %exitcond.not.i, label %_Z12gmx_calc_cogPK10gmx_mtop_tPA3_fiPKiPf.exit, label %12, !llvm.loop !10

_Z12gmx_calc_cogPK10gmx_mtop_tPA3_fiPKiPf.exit:   ; preds = %12, %6
  %28 = phi float [ 0.000000e+00, %6 ], [ %27, %12 ]
  %29 = phi float [ 0.000000e+00, %6 ], [ %24, %12 ]
  %30 = phi float [ 0.000000e+00, %6 ], [ %21, %12 ]
  %31 = sitofp i32 %3 to double
  %32 = fdiv double 1.000000e+00, %31
  %33 = fptrunc double %32 to float
  %34 = fmul float %30, %33
  store float %34, ptr %5, align 4, !tbaa !4
  %35 = fmul float %29, %33
  store float %35, ptr %9, align 4, !tbaa !4
  %36 = fmul float %28, %33
  store float %36, ptr %10, align 4, !tbaa !4
  %.not = icmp eq ptr %2, null
  br i1 %.not, label %.loopexit, label %.preheader

.preheader:                                       ; preds = %_Z12gmx_calc_cogPK10gmx_mtop_tPA3_fiPKiPf.exit
  %37 = getelementptr inbounds nuw i8, ptr %7, i64 4
  %38 = getelementptr inbounds nuw i8, ptr %7, i64 8
  %39 = getelementptr inbounds nuw i8, ptr %8, i64 4
  %40 = getelementptr inbounds nuw i8, ptr %8, i64 8
  %41 = sitofp i32 %3 to float
  br i1 %11, label %.lr.ph.us.preheader, label %.loopexit

.lr.ph.us.preheader:                              ; preds = %.preheader
  %wide.trip.count = zext nneg i32 %3 to i64
  br label %.lr.ph.us

.lr.ph.us:                                        ; preds = %55, %.lr.ph.us.preheader
  %indvars.iv44 = phi i64 [ %indvars.iv.next45.mux, %55 ], [ 0, %.lr.ph.us.preheader ]
  %.041.us = phi i1 [ %.2.us.mux, %55 ], [ false, %.lr.ph.us.preheader ]
  %42 = getelementptr inbounds nuw i32, ptr %4, i64 %indvars.iv44
  %43 = load i32, ptr %42, align 4, !tbaa !8
  %44 = sext i32 %43 to i64
  %45 = getelementptr inbounds [3 x float], ptr %1, i64 %44
  call void @_Z6pbc_dxPK5t_pbcPKfS3_Pf(ptr noundef nonnull %2, ptr noundef %45, ptr noundef nonnull %5, ptr noundef nonnull %7)
  %46 = load float, ptr %5, align 4, !tbaa !4
  %47 = load float, ptr %7, align 4, !tbaa !4
  %48 = fadd float %46, %47
  %49 = load float, ptr %9, align 4, !tbaa !4
  %50 = load float, ptr %37, align 4, !tbaa !4
  %51 = fadd float %49, %50
  %52 = load float, ptr %10, align 4, !tbaa !4
  %53 = load float, ptr %38, align 4, !tbaa !4
  %54 = fadd float %52, %53
  store float %48, ptr %8, align 4, !tbaa !4
  store float %51, ptr %39, align 4, !tbaa !4
  store float %54, ptr %40, align 4, !tbaa !4
  br label %56

55:                                               ; preds = %69
  %indvars.iv.next45 = add nuw nsw i64 %indvars.iv44, 1
  %exitcond46.not = icmp ne i64 %indvars.iv.next45, %wide.trip.count
  %brmerge = select i1 %exitcond46.not, i1 true, i1 %.2.us
  %indvars.iv.next45.mux = select i1 %exitcond46.not, i64 %indvars.iv.next45, i64 0
  %.2.us.mux = select i1 %exitcond46.not, i1 %.2.us, i1 false
  br i1 %brmerge, label %.lr.ph.us, label %.loopexit, !llvm.loop !62

56:                                               ; preds = %69, %.lr.ph.us
  %indvars.iv = phi i64 [ %indvars.iv.next, %69 ], [ 0, %.lr.ph.us ]
  %.139.us = phi i1 [ %.2.us, %69 ], [ %.041.us, %.lr.ph.us ]
  %57 = getelementptr inbounds nuw [3 x float], ptr %8, i64 0, i64 %indvars.iv
  %58 = load float, ptr %57, align 4, !tbaa !4
  %59 = getelementptr inbounds [3 x float], ptr %1, i64 %44, i64 %indvars.iv
  %60 = load float, ptr %59, align 4, !tbaa !4
  %61 = fsub float %58, %60
  %62 = call noundef float @llvm.fabs.f32(float %61)
  %63 = fcmp ogt float %62, 0x3F1A36E2E0000000
  br i1 %63, label %64, label %69

64:                                               ; preds = %56
  %65 = fdiv float %61, %41
  %66 = getelementptr inbounds nuw float, ptr %5, i64 %indvars.iv
  %67 = load float, ptr %66, align 4, !tbaa !4
  %68 = fadd float %65, %67
  store float %68, ptr %66, align 4, !tbaa !4
  store float %58, ptr %59, align 4, !tbaa !4
  br label %69

69:                                               ; preds = %64, %56
  %.2.us = phi i1 [ true, %64 ], [ %.139.us, %56 ]
  %indvars.iv.next = add nuw nsw i64 %indvars.iv, 1
  %exitcond.not = icmp eq i64 %indvars.iv.next, 3
  br i1 %exitcond.not, label %55, label %56, !llvm.loop !63

.loopexit:                                        ; preds = %55, %.preheader, %_Z12gmx_calc_cogPK10gmx_mtop_tPA3_fiPKiPf.exit
  call void @llvm.lifetime.end.p0(i64 12, ptr nonnull %8) #8
  call void @llvm.lifetime.end.p0(i64 12, ptr nonnull %7) #8
  ret void
}